target datalayout = "e-m:e-p270:32:32-p271:32:32-p272:64:64-i64:64-i128:128-f80:128-n8:16:32:64-S128"
target triple = "x86_64-pc-linux-gnu"

%struct.AVComponentDescriptor = type { i32, i32, i32, i32, i32 }
%struct.AVPixFmtDescriptor = type { ptr, i8, i8, i8, i64, [4 x %struct.AVComponentDescriptor], ptr }

@.str.5 = private unnamed_addr constant [3 x i8] c"le\00", align 1
@.str.8 = private unnamed_addr constant [3 x i8] c"be\00", align 1

; Function Attrs: nounwind uwtable
define internal i32 @get_pix_fmt_internal(ptr noundef %0) #0 {
  %2 = alloca i32, align 4
  %3 = alloca ptr, align 8
  %4 = alloca i32, align 4
  %5 = alloca i32, align 4
  store ptr %0, ptr %3, align 8, !tbaa !29
  call void @llvm.lifetime.start.p0(i64 4, ptr %4) #8
  store i32 0, ptr %4, align 4, !tbaa !15
  br label %6

6:                                                ; preds = %37, %1
  %7 = load i32, ptr %4, align 4, !tbaa !15
  %8 = icmp slt i32 %7, 258
  br i1 %8, label %9, label %40

9:                                                ; preds = %6
  %10 = load i32, ptr %4, align 4, !tbaa !15
  %11 = sext i32 %10 to i64
  %12 = getelementptr inbounds [258 x %struct.AVPixFmtDescriptor], ptr @av_pix_fmt_descriptors, i64 0, i64 %11
  %13 = getelementptr inbounds nuw %struct.AVPixFmtDescriptor, ptr %12, i32 0, i32 0
  %14 = load ptr, ptr %13, align 16, !tbaa !42
  %15 = icmp ne ptr %14, null
  br i1 %15, label %16, label %36

16:                                               ; preds = %9
  %17 = load i32, ptr %4, align 4, !tbaa !15
  %18 = sext i32 %17 to i64
  %19 = getelementptr inbounds [258 x %struct.AVPixFmtDescriptor], ptr @av_pix_fmt_descriptors, i64 0, i64 %18
  %20 = getelementptr inbounds nuw %struct.AVPixFmtDescriptor, ptr %19, i32 0, i32 0
  %21 = load ptr, ptr %20, align 16, !tbaa !42
  %22 = load ptr, ptr %3, align 8, !tbaa !29
  %23 = call i32 @strcmp(ptr noundef %21, ptr noundef %22) #10
  %24 = icmp ne i32 %23, 0
  br i1 %24, label %25, label %34

25:                                               ; preds = %16
  %26 = load ptr, ptr %3, align 8, !tbaa !29
  %27 = load i32, ptr %4, align 4, !tbaa !15
  %28 = sext i32 %27 to i64
  %29 = getelementptr inbounds [258 x %struct.AVPixFmtDescriptor], ptr @av_pix_fmt_descriptors, i64 0, i64 %28
  %30 = getelementptr inbounds nuw %struct.AVPixFmtDescriptor, ptr %29, i32 0, i32 6
  %31 = load ptr, ptr %30, align 8, !tbaa !43
  %32 = call i32 @av_match_name(ptr noundef %26, ptr noundef %31)
  %33 = icmp ne i32 %32, 0
  br i1 %33, label %34, label %36

34:                                               ; preds = %25, %16
  %35 = load i32, ptr %4, align 4, !tbaa !15
  store i32 %35, ptr %2, align 4
  store i32 1, ptr %5, align 4
  br label %41

36:                                               ; preds = %25, %9
  br label %37

37:                                               ; preds = %36
  %38 = load i32, ptr %4, align 4, !tbaa !15
  %39 = add nsw i32 %38, 1
  store i32 %39, ptr %4, align 4, !tbaa !15
  br label %6, !llvm.loop !44

40:                                               ; preds = %6
  store i32 -1, ptr %2, align 4
  store i32 1, ptr %5, align 4
  br label %41

41:                                               ; preds = %40, %34
  call void @llvm.lifetime.end.p0(i64 4, ptr %4) #8
  %42 = load i32, ptr %2, align 4
  ret i32 %42
}

; Function Attrs: nounwind uwtable
define ptr @av_pix_fmt_desc_get(i32 noundef %0) #0 {
  %2 = alloca ptr, align 8
  %3 = alloca i32, align 4
  store i32 %0, ptr %3, align 4, !tbaa !15
  %4 = load i32, ptr %3, align 4, !tbaa !15
  %5 = icmp slt i32 %4, 0
  br i1 %5, label %9, label %6

6:                                                ; preds = %1
  %7 = load i32, ptr %3, align 4, !tbaa !15
  %8 = icmp sge i32 %7, 258
  br i1 %8, label %9, label %10

9:                                                ; preds = %6, %1
  store ptr null, ptr %2, align 8
  br label %14

10:                                               ; preds = %6
  %11 = load i32, ptr %3, align 4, !tbaa !15
  %12 = sext i32 %11 to i64
  %13 = getelementptr inbounds [258 x %struct.AVPixFmtDescriptor], ptr @av_pix_fmt_descriptors, i64 0, i64 %12
  store ptr %13, ptr %2, align 8
  br label %14

14:                                               ; preds = %10, %9
  %15 = load ptr, ptr %2, align 8
  ret ptr %15
}

; Function Attrs: nounwind uwtable
define i32 @av_pix_fmt_swap_endianness(i32 noundef %0) #0 {
  %2 = alloca i32, align 4
  %3 = alloca i32, align 4
  %4 = alloca ptr, align 8
  %5 = alloca [16 x i8], align 16
  %6 = alloca i32, align 4
  %7 = alloca i32, align 4
  store i32 %0, ptr %3, align 4, !tbaa !15
  call void @llvm.lifetime.start.p0(i64 8, ptr %4) #8
  %8 = load i32, ptr %3, align 4, !tbaa !15
  %9 = call ptr @av_pix_fmt_desc_get(i32 noundef %8)
  store ptr %9, ptr %4, align 8, !tbaa !13
  call void @llvm.lifetime.start.p0(i64 16, ptr %5) #8
  call void @llvm.lifetime.start.p0(i64 4, ptr %6) #8
  %10 = load ptr, ptr %4, align 8, !tbaa !13
  %11 = icmp ne ptr %10, null
  br i1 %11, label %12, label %18

12:                                               ; preds = %1
  %13 = load ptr, ptr %4, align 8, !tbaa !13
  %14 = getelementptr inbounds nuw %struct.AVPixFmtDescriptor, ptr %13, i32 0, i32 0
  %15 = load ptr, ptr %14, align 8, !tbaa !42
  %16 = call i64 @strlen(ptr noundef %15) #10
  %17 = icmp ult i64 %16, 2
  br i1 %17, label %18, label %19

18:                                               ; preds = %12, %1
  store i32 -1, ptr %2, align 4
  store i32 1, ptr %7, align 4
  br label %53

19:                                               ; preds = %12
  %20 = getelementptr inbounds [16 x i8], ptr %5, i64 0, i64 0
  %21 = load ptr, ptr %4, align 8, !tbaa !13
  %22 = getelementptr inbounds nuw %struct.AVPixFmtDescriptor, ptr %21, i32 0, i32 0
  %23 = load ptr, ptr %22, align 8, !tbaa !42
  %24 = call i64 @av_strlcpy(ptr noundef %20, ptr noundef %23, i64 noundef 16)
  %25 = getelementptr inbounds [16 x i8], ptr %5, i64 0, i64 0
  %26 = call i64 @strlen(ptr noundef %25) #10
  %27 = sub i64 %26, 2
  %28 = trunc i64 %27 to i32
  store i32 %28, ptr %6, align 4, !tbaa !15
  %29 = getelementptr inbounds [16 x i8], ptr %5, i64 0, i64 0
  %30 = load i32, ptr %6, align 4, !tbaa !15
  %31 = sext i32 %30 to i64
  %32 = getelementptr inbounds i8, ptr %29, i64 %31
  %33 = call i32 @strcmp(ptr noundef %32, ptr noundef @.str.8) #10
  %34 = icmp ne i32 %33, 0
  br i1 %34, label %35, label %43

35:                                               ; preds = %19
  %36 = getelementptr inbounds [16 x i8], ptr %5, i64 0, i64 0
  %37 = load i32, ptr %6, align 4, !tbaa !15
  %38 = sext i32 %37 to i64
  %39 = getelementptr inbounds i8, ptr %36, i64 %38
  %40 = call i32 @strcmp(ptr noundef %39, ptr noundef @.str.5) #10
  %41 = icmp ne i32 %40, 0
  br i1 %41, label %42, label %43

42:                                               ; preds = %35
  store i32 -1, ptr %2, align 4
  store i32 1, ptr %7, align 4
  br label %53

43:                                               ; preds = %35, %19
  %44 = load i32, ptr %6, align 4, !tbaa !15
  %45 = sext i32 %44 to i64
  %46 = getelementptr inbounds [16 x i8], ptr %5, i64 0, i64 %45
  %47 = load i8, ptr %46, align 1, !tbaa !30
  %48 = sext i8 %47 to i32
  %49 = xor i32 %48, 14
  %50 = trunc i32 %49 to i8
  store i8 %50, ptr %46, align 1, !tbaa !30
  %51 = getelementptr inbounds [16 x i8], ptr %5, i64 0, i64 0
  %52 = call i32 @get_pix_fmt_internal(ptr noundef %51)
  store i32 %52, ptr %2, align 4
  store i32 1, ptr %7, align 4
  br label %53

53:                                               ; preds = %43, %42, %18
  call void @llvm.lifetime.end.p0(i64 4, ptr %6) #8
  call void @llvm.lifetime.end.p0(i64 16, ptr %5) #8
  call void @llvm.lifetime.end.p0(i64 8, ptr %4) #8
  %54 = load i32, ptr %2, align 4
  ret i32 %54
}