; Function Attrs: nounwind uwtable
define i32 @av_pix_fmt_swap_endianness(i32 noundef %0) local_unnamed_addr #4 {
  %2 = alloca [16 x i8], align 16
  %or.cond.i = icmp ugt i32 %0, 257
  call void @llvm.lifetime.start.p0(i64 16, ptr nonnull %2) #15
  br i1 %or.cond.i, label %get_pix_fmt_internal.exit, label %3

3:                                                ; preds = %1
  %4 = zext nneg i32 %0 to i64
  %5 = getelementptr inbounds nuw [258 x %struct.AVPixFmtDescriptor], ptr @av_pix_fmt_descriptors, i64 0, i64 %4
  %6 = load ptr, ptr %5, align 16, !tbaa !25
  %7 = tail call i64 @strlen(ptr noundef nonnull dereferenceable(1) %6) #14
  %8 = icmp ult i64 %7, 2
  br i1 %8, label %get_pix_fmt_internal.exit, label %sub_0

sub_0:                                            ; preds = %3
  %9 = call i64 @av_strlcpy(ptr noundef nonnull %2, ptr noundef nonnull %6, i64 noundef 16) #15
  %10 = call i64 @strlen(ptr noundef nonnull dereferenceable(1) %2) #14
  %11 = shl i64 %10, 32
  %sext = add i64 %11, -8589934592
  %12 = ashr exact i64 %sext, 32
  %13 = getelementptr inbounds i8, ptr %2, i64 %12
  %14 = load i8, ptr %13, align 1
  switch i8 %14, label %get_pix_fmt_internal.exit [
    i8 98, label %sub_1
    i8 108, label %sub_112
  ]

sub_1:                                            ; preds = %sub_0
  %15 = getelementptr inbounds nuw i8, ptr %13, i64 1
  %16 = load i8, ptr %15, align 1
  %.not17 = icmp eq i8 %16, 101
  br i1 %.not17, label %.tail, label %get_pix_fmt_internal.exit

.tail:                                            ; preds = %sub_1
  %17 = getelementptr inbounds nuw i8, ptr %13, i64 2
  %18 = load i8, ptr %17, align 1
  %19 = icmp eq i8 %18, 0
  br i1 %19, label %25, label %get_pix_fmt_internal.exit

sub_112:                                          ; preds = %sub_0
  %20 = getelementptr inbounds nuw i8, ptr %13, i64 1
  %21 = load i8, ptr %20, align 1
  %.not19 = icmp eq i8 %21, 101
  br i1 %.not19, label %.tail10, label %get_pix_fmt_internal.exit

.tail10:                                          ; preds = %sub_112
  %22 = getelementptr inbounds nuw i8, ptr %13, i64 2
  %23 = load i8, ptr %22, align 1
  %24 = icmp eq i8 %23, 0
  br i1 %24, label %25, label %get_pix_fmt_internal.exit

25:                                               ; preds = %.tail10, %.tail
  %26 = xor i8 %14, 14
  store i8 %26, ptr %13, align 1, !tbaa !14
  br label %27

27:                                               ; preds = %36, %25
  %indvars.iv.i = phi i64 [ 0, %25 ], [ %indvars.iv.next.i, %36 ]
  %28 = getelementptr inbounds nuw [258 x %struct.AVPixFmtDescriptor], ptr @av_pix_fmt_descriptors, i64 0, i64 %indvars.iv.i
  %29 = load ptr, ptr %28, align 16, !tbaa !25
  %.not.i = icmp eq ptr %29, null
  br i1 %.not.i, label %36, label %30

30:                                               ; preds = %27
  %31 = call i32 @strcmp(ptr noundef nonnull dereferenceable(1) %29, ptr noundef nonnull dereferenceable(1) %2) #14
  %.not10.i = icmp eq i32 %31, 0
  br i1 %.not10.i, label %.split.loop.exit14.i, label %32

32:                                               ; preds = %30
  %33 = getelementptr inbounds nuw i8, ptr %28, i64 104
  %34 = load ptr, ptr %33, align 8, !tbaa !26
  %35 = call i32 @av_match_name(ptr noundef nonnull %2, ptr noundef %34) #15
  %.not11.i = icmp eq i32 %35, 0
  br i1 %.not11.i, label %36, label %.split.loop.exit16.i

36:                                               ; preds = %32, %27
  %indvars.iv.next.i = add nuw nsw i64 %indvars.iv.i, 1
  %exitcond.not.i = icmp eq i64 %indvars.iv.next.i, 258
  br i1 %exitcond.not.i, label %get_pix_fmt_internal.exit, label %27, !llvm.loop !27

.split.loop.exit14.i:                             ; preds = %30
  %37 = trunc nuw nsw i64 %indvars.iv.i to i32
  br label %get_pix_fmt_internal.exit

.split.loop.exit16.i:                             ; preds = %32
  %38 = trunc nuw nsw i64 %indvars.iv.i to i32
  br label %get_pix_fmt_internal.exit

get_pix_fmt_internal.exit:                        ; preds = %36, %sub_0, %.tail, %sub_1, %sub_112, %.split.loop.exit16.i, %.split.loop.exit14.i, %.tail10, %1, %3
  %.0 = phi i32 [ -1, %3 ], [ -1, %1 ], [ -1, %.tail10 ], [ %37, %.split.loop.exit14.i ], [ %38, %.split.loop.exit16.i ], [ -1, %sub_112 ], [ -1, %sub_1 ], [ -1, %.tail ], [ -1, %sub_0 ], [ -1, %36 ]
  call void @llvm.lifetime.end.p0(i64 16, ptr nonnull %2) #15
  ret i32 %.0
}